; Function Attrs: nounwind uwtable
define dso_local noalias noundef ptr @quicklistCreate() local_unnamed_addr #1 {
  %1 = tail call noalias dereferenceable_or_null(40) ptr @zmalloc(i64 noundef 40) #22
  %2 = getelementptr inbounds nuw i8, ptr %1, i64 32
  tail call void @llvm.memset.p0.i64(ptr noundef nonnull align 8 dereferenceable(32) %1, i8 0, i64 32, i1 false)
  %3 = load i64, ptr %2, align 8
  %4 = and i64 %3, -68719476736
  %5 = or disjoint i64 %4, 65534
  store i64 %5, ptr %2, align 8
  ret ptr %1
}